target datalayout = "e-m:e-p270:32:32-p271:32:32-p272:64:64-i64:64-f80:128-n8:16:32:64-S128"
target triple = "x86_64-pc-linux-gnu"

@.str = private unnamed_addr constant [5 x i8] c"%d%d\00", align 1
@.str.1 = private unnamed_addr constant [3 x i8] c"%d\00", align 1
@.str.2 = private unnamed_addr constant [4 x i8] c"%d\0A\00", align 1

; Function Attrs: noinline nounwind uwtable
define dso_local void @main() #0 {
  %1 = alloca [100 x [100 x i32]], align 16
  %2 = alloca i32, align 4
  %3 = alloca i32, align 4
  %4 = alloca i32, align 4
  %5 = alloca i32, align 4
  %6 = alloca i32, align 4
  %7 = call i32 (i8*, ...) @__isoc99_scanf(i8* getelementptr inbounds ([5 x i8], [5 x i8]* @.str, i64 0, i64 0), i32* %2, i32* %3)
  store i32 0, i32* %4, align 4
  br label %8

8:                                                ; preds = %29, %0
  %9 = load i32, i32* %4, align 4
  %10 = load i32, i32* %2, align 4
  %11 = icmp slt i32 %9, %10
  br i1 %11, label %12, label %32

12:                                               ; preds = %8
  store i32 0, i32* %5, align 4
  br label %13

13:                                               ; preds = %25, %12
  %14 = load i32, i32* %5, align 4
  %15 = load i32, i32* %3, align 4
  %16 = icmp slt i32 %14, %15
  br i1 %16, label %17, label %28

17:                                               ; preds = %13
  %18 = load i32, i32* %4, align 4
  %19 = sext i32 %18 to i64
  %20 = getelementptr inbounds [100 x [100 x i32]], [100 x [100 x i32]]* %1, i64 0, i64 %19
  %21 = load i32, i32* %5, align 4
  %22 = sext i32 %21 to i64
  %23 = getelementptr inbounds [100 x i32], [100 x i32]* %20, i64 0, i64 %22
  %24 = call i32 (i8*, ...) @__isoc99_scanf(i8* getelementptr inbounds ([3 x i8], [3 x i8]* @.str.1, i64 0, i64 0), i32* %23)
  br label %25

25:                                               ; preds = %17
  %26 = load i32, i32* %5, align 4
  %27 = add nsw i32 %26, 1
  store i32 %27, i32* %5, align 4
  br label %13

28:                                               ; preds = %13
  br label %29

29:                                               ; preds = %28
  %30 = load i32, i32* %4, align 4
  %31 = add nsw i32 %30, 1
  store i32 %31, i32* %4, align 4
  br label %8

32:                                               ; preds = %8
  store i32 0, i32* %6, align 4
  br label %33

33:                                               ; preds = %139, %32
  %34 = load i32, i32* %6, align 4
  %35 = load i32, i32* %2, align 4
  %36 = sdiv i32 %35, 2
  %37 = sub nsw i32 %36, 1
  %38 = icmp sle i32 %34, %37
  br i1 %38, label %39, label %45

39:                                               ; preds = %33
  %40 = load i32, i32* %6, align 4
  %41 = load i32, i32* %3, align 4
  %42 = sdiv i32 %41, 2
  %43 = sub nsw i32 %42, 1
  %44 = icmp sle i32 %40, %43
  br label %45

45:                                               ; preds = %39, %33
  %46 = phi i1 [ false, %33 ], [ %44, %39 ]
  br i1 %46, label %47, label %142

47:                                               ; preds = %45
  %48 = load i32, i32* %6, align 4
  %49 = add nsw i32 0, %48
  store i32 %49, i32* %5, align 4
  br label %50

50:                                               ; preds = %65, %47
  %51 = load i32, i32* %5, align 4
  %52 = load i32, i32* %3, align 4
  %53 = load i32, i32* %6, align 4
  %54 = sub nsw i32 %52, %53
  %55 = icmp slt i32 %51, %54
  br i1 %55, label %56, label %68

56:                                               ; preds = %50
  %57 = load i32, i32* %6, align 4
  %58 = sext i32 %57 to i64
  %59 = getelementptr inbounds [100 x [100 x i32]], [100 x [100 x i32]]* %1, i64 0, i64 %58
  %60 = load i32, i32* %5, align 4
  %61 = sext i32 %60 to i64
  %62 = getelementptr inbounds [100 x i32], [100 x i32]* %59, i64 0, i64 %61
  %63 = load i32, i32* %62, align 4
  %64 = call i32 (i8*, ...) @printf(i8* getelementptr inbounds ([4 x i8], [4 x i8]* @.str.2, i64 0, i64 0), i32 %63)
  br label %65

65:                                               ; preds = %56
  %66 = load i32, i32* %5, align 4
  %67 = add nsw i32 %66, 1
  store i32 %67, i32* %5, align 4
  br label %50

68:                                               ; preds = %50
  %69 = load i32, i32* %6, align 4
  %70 = add nsw i32 1, %69
  store i32 %70, i32* %4, align 4
  br label %71

71:                                               ; preds = %89, %68
  %72 = load i32, i32* %4, align 4
  %73 = load i32, i32* %2, align 4
  %74 = load i32, i32* %6, align 4
  %75 = sub nsw i32 %73, %74
  %76 = icmp slt i32 %72, %75
  br i1 %76, label %77, label %92

77:                                               ; preds = %71
  %78 = load i32, i32* %4, align 4
  %79 = sext i32 %78 to i64
  %80 = getelementptr inbounds [100 x [100 x i32]], [100 x [100 x i32]]* %1, i64 0, i64 %79
  %81 = load i32, i32* %3, align 4
  %82 = sub nsw i32 %81, 1
  %83 = load i32, i32* %6, align 4
  %84 = sub nsw i32 %82, %83
  %85 = sext i32 %84 to i64
  %86 = getelementptr inbounds [100 x i32], [100 x i32]* %80, i64 0, i64 %85
  %87 = load i32, i32* %86, align 4
  %88 = call i32 (i8*, ...) @printf(i8* getelementptr inbounds ([4 x i8], [4 x i8]* @.str.2, i64 0, i64 0), i32 %87)
  br label %89

89:                                               ; preds = %77
  %90 = load i32, i32* %4, align 4
  %91 = add nsw i32 %90, 1
  store i32 %91, i32* %4, align 4
  br label %71

92:                                               ; preds = %71
  %93 = load i32, i32* %3, align 4
  %94 = sub nsw i32 %93, 2
  %95 = load i32, i32* %6, align 4
  %96 = sub nsw i32 %94, %95
  store i32 %96, i32* %5, align 4
  br label %97

97:                                               ; preds = %113, %92
  %98 = load i32, i32* %5, align 4
  %99 = load i32, i32* %6, align 4
  %100 = icmp sge i32 %98, %99
  br i1 %100, label %101, label %116

101:                                              ; preds = %97
  %102 = load i32, i32* %2, align 4
  %103 = sub nsw i32 %102, 1
  %104 = load i32, i32* %6, align 4
  %105 = sub nsw i32 %103, %104
  %106 = sext i32 %105 to i64
  %107 = getelementptr inbounds [100 x [100 x i32]], [100 x [100 x i32]]* %1, i64 0, i64 %106
  %108 = load i32, i32* %5, align 4
  %109 = sext i32 %108 to i64
  %110 = getelementptr inbounds [100 x i32], [100 x i32]* %107, i64 0, i64 %109
  %111 = load i32, i32* %110, align 4
  %112 = call i32 (i8*, ...) @printf(i8* getelementptr inbounds ([4 x i8], [4 x i8]* @.str.2, i64 0, i64 0), i32 %111)
  br label %113

113:                                              ; preds = %101
  %114 = load i32, i32* %5, align 4
  %115 = add nsw i32 %114, -1
  store i32 %115, i32* %5, align 4
  br label %97

116:                                              ; preds = %97
  %117 = load i32, i32* %2, align 4
  %118 = sub nsw i32 %117, 2
  %119 = load i32, i32* %6, align 4
  %120 = sub nsw i32 %118, %119
  store i32 %120, i32* %4, align 4
  br label %121

121:                                              ; preds = %135, %116
  %122 = load i32, i32* %4, align 4
  %123 = load i32, i32* %6, align 4
  %124 = add nsw i32 %123, 1
  %125 = icmp sge i32 %122, %124
  br i1 %125, label %126, label %138

126:                                              ; preds = %121
  %127 = load i32, i32* %4, align 4
  %128 = sext i32 %127 to i64
  %129 = getelementptr inbounds [100 x [100 x i32]], [100 x [100 x i32]]* %1, i64 0, i64 %128
  %130 = load i32, i32* %6, align 4
  %131 = sext i32 %130 to i64
  %132 = getelementptr inbounds [100 x i32], [100 x i32]* %129, i64 0, i64 %131
  %133 = load i32, i32* %132, align 4
  %134 = call i32 (i8*, ...) @printf(i8* getelementptr inbounds ([4 x i8], [4 x i8]* @.str.2, i64 0, i64 0), i32 %133)
  br label %135

135:                                              ; preds = %126
  %136 = load i32, i32* %4, align 4
  %137 = add nsw i32 %136, -1
  store i32 %137, i32* %4, align 4
  br label %121

138:                                              ; preds = %121
  br label %139

139:                                              ; preds = %138
  %140 = load i32, i32* %6, align 4
  %141 = add nsw i32 %140, 1
  store i32 %141, i32* %6, align 4
  br label %33

142:                                              ; preds = %45
  %143 = load i32, i32* %2, align 4
  %144 = load i32, i32* %3, align 4
  %145 = icmp sgt i32 %143, %144
  br i1 %145, label %146, label %172

146:                                              ; preds = %142
  %147 = load i32, i32* %3, align 4
  %148 = srem i32 %147, 2
  %149 = icmp ne i32 %148, 0
  br i1 %149, label %150, label %172

150:                                              ; preds = %146
  %151 = load i32, i32* %6, align 4
  store i32 %151, i32* %4, align 4
  br label %152

152:                                              ; preds = %168, %150
  %153 = load i32, i32* %4, align 4
  %154 = load i32, i32* %2, align 4
  %155 = load i32, i32* %6, align 4
  %156 = sub nsw i32 %154, %155
  %157 = icmp slt i32 %153, %156
  br i1 %157, label %158, label %171

158:                                              ; preds = %152
  %159 = load i32, i32* %4, align 4
  %160 = sext i32 %159 to i64
  %161 = getelementptr inbounds [100 x [100 x i32]], [100 x [100 x i32]]* %1, i64 0, i64 %160
  %162 = load i32, i32* %3, align 4
  %163 = sdiv i32 %162, 2
  %164 = sext i32 %163 to i64
  %165 = getelementptr inbounds [100 x i32], [100 x i32]* %161, i64 0, i64 %164
  %166 = load i32, i32* %165, align 4
  %167 = call i32 (i8*, ...) @printf(i8* getelementptr inbounds ([4 x i8], [4 x i8]* @.str.2, i64 0, i64 0), i32 %166)
  br label %168

168:                                              ; preds = %158
  %169 = load i32, i32* %4, align 4
  %170 = add nsw i32 %169, 1
  store i32 %170, i32* %4, align 4
  br label %152

171:                                              ; preds = %152
  br label %172

172:                                              ; preds = %171, %146, %142
  %173 = load i32, i32* %2, align 4
  %174 = load i32, i32* %3, align 4
  %175 = icmp slt i32 %173, %174
  br i1 %175, label %176, label %202

176:                                              ; preds = %172
  %177 = load i32, i32* %2, align 4
  %178 = srem i32 %177, 2
  %179 = icmp ne i32 %178, 0
  br i1 %179, label %180, label %202

180:                                              ; preds = %176
  %181 = load i32, i32* %6, align 4
  store i32 %181, i32* %5, align 4
  br label %182

182:                                              ; preds = %198, %180
  %183 = load i32, i32* %5, align 4
  %184 = load i32, i32* %3, align 4
  %185 = load i32, i32* %6, align 4
  %186 = sub nsw i32 %184, %185
  %187 = icmp slt i32 %183, %186
  br i1 %187, label %188, label %201

188:                                              ; preds = %182
  %189 = load i32, i32* %2, align 4
  %190 = sdiv i32 %189, 2
  %191 = sext i32 %190 to i64
  %192 = getelementptr inbounds [100 x [100 x i32]], [100 x [100 x i32]]* %1, i64 0, i64 %191
  %193 = load i32, i32* %5, align 4
  %194 = sext i32 %193 to i64
  %195 = getelementptr inbounds [100 x i32], [100 x i32]* %192, i64 0, i64 %194
  %196 = load i32, i32* %195, align 4
  %197 = call i32 (i8*, ...) @printf(i8* getelementptr inbounds ([4 x i8], [4 x i8]* @.str.2, i64 0, i64 0), i32 %196)
  br label %198

198:                                              ; preds = %188
  %199 = load i32, i32* %5, align 4
  %200 = add nsw i32 %199, 1
  store i32 %200, i32* %5, align 4
  br label %182

201:                                              ; preds = %182
  br label %202

202:                                              ; preds = %201, %176, %172
  %203 = load i32, i32* %2, align 4
  %204 = load i32, i32* %3, align 4
  %205 = icmp eq i32 %203, %204
  br i1 %205, label %206, label %221

206:                                              ; preds = %202
  %207 = load i32, i32* %2, align 4
  %208 = srem i32 %207, 2
  %209 = icmp ne i32 %208, 0
  br i1 %209, label %210, label %221

210:                                              ; preds = %206
  %211 = load i32, i32* %2, align 4
  %212 = sdiv i32 %211, 2
  %213 = sext i32 %212 to i64
  %214 = getelementptr inbounds [100 x [100 x i32]], [100 x [100 x i32]]* %1, i64 0, i64 %213
  %215 = load i32, i32* %3, align 4
  %216 = sdiv i32 %215, 2
  %217 = sext i32 %216 to i64
  %218 = getelementptr inbounds [100 x i32], [100 x i32]* %214, i64 0, i64 %217
  %219 = load i32, i32* %218, align 4
  %220 = call i32 (i8*, ...) @printf(i8* getelementptr inbounds ([3 x i8], [3 x i8]* @.str.1, i64 0, i64 0), i32 %219)
  br label %221

221:                                              ; preds = %210, %206, %202
  ret void
}